target datalayout = "e-m:e-p270:32:32-p271:32:32-p272:64:64-i64:64-i128:128-f80:128-n8:16:32:64-S128"
target triple = "x86_64-pc-linux-gnu"

%"class.icu_77::MaybeStackArray" = type <{ ptr, i32, i8, [40 x i8], [3 x i8] }>
%"class.icu_77::UObject" = type { ptr }
%"class.icu_77::UnicodeString" = type { %"class.icu_77::Replaceable", %"union.icu_77::UnicodeString::StackBufferOrFields" }
%"class.icu_77::Replaceable" = type { %"class.icu_77::UObject" }
%"union.icu_77::UnicodeString::StackBufferOrFields" = type { %struct.anon.2, [32 x i8] }
%struct.anon.2 = type { i16, i32, i32, ptr }
%"class.icu_77::numparse::impl::IgnorablesMatcher" = type { %"class.icu_77::numparse::impl::SymbolMatcher" }
%"class.icu_77::numparse::impl::SymbolMatcher" = type { %"class.icu_77::numparse::impl::NumberParseMatcher", %"class.icu_77::UnicodeString", ptr }
%"class.icu_77::numparse::impl::NumberParseMatcher" = type { ptr }
%"class.icu_77::CharString" = type { %"class.icu_77::MaybeStackArray", i32, [4 x i8] }
%"class.icu_77::numparse::impl::AffixTokenMatcherWarehouse" = type { ptr, %"class.icu_77::numparse::impl::MinusSignMatcher", %"class.icu_77::numparse::impl::PlusSignMatcher", %"class.icu_77::numparse::impl::PercentMatcher", %"class.icu_77::numparse::impl::PermilleMatcher", %"class.icu_77::numparse::impl::CombinedCurrencyMatcher", %"class.icu_77::MemoryPool" }
%"class.icu_77::numparse::impl::MinusSignMatcher" = type <{ %"class.icu_77::numparse::impl::SymbolMatcher", i8, [7 x i8] }>
%"class.icu_77::numparse::impl::PlusSignMatcher" = type <{ %"class.icu_77::numparse::impl::SymbolMatcher", i8, [7 x i8] }>
%"class.icu_77::numparse::impl::PercentMatcher" = type { %"class.icu_77::numparse::impl::SymbolMatcher" }
%"class.icu_77::numparse::impl::PermilleMatcher" = type { %"class.icu_77::numparse::impl::SymbolMatcher" }
%"class.icu_77::numparse::impl::CombinedCurrencyMatcher" = type { %"class.icu_77::numparse::impl::NumberParseMatcher", [4 x i16], %"class.icu_77::UnicodeString", %"class.icu_77::UnicodeString", i8, [8 x %"class.icu_77::UnicodeString"], %"class.icu_77::UnicodeString", %"class.icu_77::UnicodeString", %"class.icu_77::CharString" }
%"class.icu_77::MemoryPool" = type { i32, %"class.icu_77::MaybeStackArray.9" }
%"class.icu_77::MaybeStackArray.9" = type { ptr, i32, i8, [8 x ptr] }
%"class.icu_77::numparse::impl::AffixMatcherWarehouse" = type { [18 x %"class.icu_77::numparse::impl::AffixMatcher"], [12 x %"class.icu_77::numparse::impl::AffixPatternMatcher"], ptr }
%"class.icu_77::numparse::impl::AffixMatcher" = type <{ %"class.icu_77::numparse::impl::NumberParseMatcher", ptr, ptr, i32, [4 x i8] }>
%"class.icu_77::numparse::impl::AffixPatternMatcher" = type { %"class.icu_77::numparse::impl::ArraySeriesMatcher.base", [4 x i8], %"class.icu_77::numparse::impl::CompactUnicodeString" }
%"class.icu_77::numparse::impl::ArraySeriesMatcher.base" = type <{ %"class.icu_77::numparse::impl::SeriesMatcher", %"class.icu_77::MaybeStackArray.6", i32 }>
%"class.icu_77::numparse::impl::SeriesMatcher" = type { %"class.icu_77::numparse::impl::CompositionMatcher" }
%"class.icu_77::numparse::impl::CompositionMatcher" = type { %"class.icu_77::numparse::impl::NumberParseMatcher" }
%"class.icu_77::MaybeStackArray.6" = type { ptr, i32, i8, [3 x ptr] }
%"class.icu_77::numparse::impl::CompactUnicodeString" = type { %"class.icu_77::MaybeStackArray.7" }
%"class.icu_77::MaybeStackArray.7" = type <{ ptr, i32, i8, i8, [4 x i16], [2 x i8] }>
%"class.icu_77::numparse::impl::DecimalMatcher" = type { %"class.icu_77::numparse::impl::NumberParseMatcher", i8, i8, i8, i16, i16, %"class.icu_77::UnicodeString", %"class.icu_77::UnicodeString", ptr, ptr, ptr, ptr, %"class.icu_77::LocalPointer.3", %"class.icu_77::LocalPointer.3", %"class.icu_77::LocalArray" }
%"class.icu_77::LocalPointer.3" = type { %"class.icu_77::LocalPointerBase.4" }
%"class.icu_77::LocalPointerBase.4" = type { ptr }
%"class.icu_77::LocalArray" = type { %"class.icu_77::LocalPointerBase.5" }
%"class.icu_77::LocalPointerBase.5" = type { ptr }
%"class.icu_77::numparse::impl::NanMatcher" = type { %"class.icu_77::numparse::impl::SymbolMatcher" }
%"class.icu_77::numparse::impl::InfinityMatcher" = type { %"class.icu_77::numparse::impl::SymbolMatcher" }
%"class.icu_77::numparse::impl::PaddingMatcher" = type { %"class.icu_77::numparse::impl::SymbolMatcher" }
%"class.icu_77::numparse::impl::ScientificMatcher" = type { %"class.icu_77::numparse::impl::NumberParseMatcher", %"class.icu_77::UnicodeString", %"class.icu_77::numparse::impl::DecimalMatcher", %"class.icu_77::numparse::impl::IgnorablesMatcher", %"class.icu_77::UnicodeString", %"class.icu_77::UnicodeString" }
%"class.icu_77::numparse::impl::RequireNumberValidator" = type { %"class.icu_77::numparse::impl::ValidationMatcher" }
%"class.icu_77::numparse::impl::ValidationMatcher" = type { %"class.icu_77::numparse::impl::NumberParseMatcher" }
%"class.icu_77::numparse::impl::NumberParserImpl" = type { %"class.icu_77::numparse::impl::MutableMatcherCollection", i32, i32, %"class.icu_77::MaybeStackArray.0", i8, %struct.anon, %struct.anon.10 }
%"class.icu_77::numparse::impl::MutableMatcherCollection" = type { ptr }
%"class.icu_77::MaybeStackArray.0" = type { ptr, i32, i8, [10 x ptr] }
%struct.anon = type { %"class.icu_77::numparse::impl::IgnorablesMatcher", %"class.icu_77::numparse::impl::InfinityMatcher", %"class.icu_77::numparse::impl::MinusSignMatcher", %"class.icu_77::numparse::impl::NanMatcher", %"class.icu_77::numparse::impl::PaddingMatcher", %"class.icu_77::numparse::impl::PercentMatcher", %"class.icu_77::numparse::impl::PermilleMatcher", %"class.icu_77::numparse::impl::PlusSignMatcher", %"class.icu_77::numparse::impl::DecimalMatcher", %"class.icu_77::numparse::impl::ScientificMatcher", %"class.icu_77::numparse::impl::CombinedCurrencyMatcher", %"class.icu_77::numparse::impl::AffixMatcherWarehouse", %"class.icu_77::numparse::impl::AffixTokenMatcherWarehouse" }
%struct.anon.10 = type { %"class.icu_77::numparse::impl::RequireAffixValidator", %"class.icu_77::numparse::impl::RequireCurrencyValidator", %"class.icu_77::numparse::impl::RequireDecimalSeparatorValidator", %"class.icu_77::numparse::impl::RequireNumberValidator", %"class.icu_77::numparse::impl::MultiplierParseHandler" }
%"class.icu_77::numparse::impl::RequireAffixValidator" = type { %"class.icu_77::numparse::impl::ValidationMatcher" }
%"class.icu_77::numparse::impl::RequireCurrencyValidator" = type { %"class.icu_77::numparse::impl::ValidationMatcher" }
%"class.icu_77::numparse::impl::RequireDecimalSeparatorValidator" = type <{ %"class.icu_77::numparse::impl::ValidationMatcher", i8, [7 x i8] }>
%"class.icu_77::numparse::impl::MultiplierParseHandler" = type { %"class.icu_77::numparse::impl::ValidationMatcher", %"class.icu_77::number::Scale" }
%"class.icu_77::number::Scale" = type <{ i32, [4 x i8], ptr, i32, [4 x i8] }>

; Function Attrs: mustprogress uwtable
define linkonce_odr void @_ZN6icu_7715MaybeStackArrayIPKNS_8numparse4impl18NumberParseMatcherELi10EE12releaseArrayEv(ptr noundef nonnull align 8 dereferenceable(96) %0) #1 comdat align 2 {
  %2 = alloca ptr, align 8
  store ptr %0, ptr %2, align 8, !tbaa !220
  %3 = load ptr, ptr %2, align 8
  %4 = getelementptr inbounds nuw %"class.icu_77::MaybeStackArray.0", ptr %3, i32 0, i32 2
  %5 = load i8, ptr %4, align 4, !tbaa !224
  %6 = icmp ne i8 %5, 0
  br i1 %6, label %7, label %10

7:                                                ; preds = %1
  %8 = getelementptr inbounds nuw %"class.icu_77::MaybeStackArray.0", ptr %3, i32 0, i32 0
  %9 = load ptr, ptr %8, align 8, !tbaa !222
  call void @uprv_free_77(ptr noundef %9)
  br label %10

10:                                               ; preds = %7, %1
  ret void
}

; Function Attrs: mustprogress nounwind uwtable
define linkonce_odr noundef nonnull align 8 dereferenceable(8) ptr @_ZN6icu_7715MaybeStackArrayIPKNS_8numparse4impl18NumberParseMatcherELi10EEixEl(ptr noundef nonnull align 8 dereferenceable(96) %0, i64 noundef %1) #0 comdat align 2 {
  %3 = alloca ptr, align 8
  %4 = alloca i64, align 8
  store ptr %0, ptr %3, align 8, !tbaa !220
  store i64 %1, ptr %4, align 8, !tbaa !18
  %5 = load ptr, ptr %3, align 8
  %6 = getelementptr inbounds nuw %"class.icu_77::MaybeStackArray.0", ptr %5, i32 0, i32 0
  %7 = load ptr, ptr %6, align 8, !tbaa !222
  %8 = load i64, ptr %4, align 8, !tbaa !18
  %9 = getelementptr inbounds ptr, ptr %7, i64 %8
  ret ptr %9
}

; Function Attrs: inlinehint mustprogress uwtable
define linkonce_odr noundef ptr @_ZN6icu_7715MaybeStackArrayIPKNS_8numparse4impl18NumberParseMatcherELi10EE6resizeEii(ptr noundef nonnull align 8 dereferenceable(96) %0, i32 noundef %1, i32 noundef %2) #3 comdat align 2 {
  %4 = alloca ptr, align 8
  %5 = alloca ptr, align 8
  %6 = alloca i32, align 4
  %7 = alloca i32, align 4
  %8 = alloca ptr, align 8
  store ptr %0, ptr %5, align 8, !tbaa !220
  store i32 %1, ptr %6, align 4, !tbaa !14
  store i32 %2, ptr %7, align 4, !tbaa !14
  %9 = load ptr, ptr %5, align 8
  %10 = load i32, ptr %6, align 4, !tbaa !14
  %11 = icmp sgt i32 %10, 0
  br i1 %11, label %12, label %54

12:                                               ; preds = %3
  call void @llvm.lifetime.start.p0(i64 8, ptr %8) #13
  %13 = load i32, ptr %6, align 4, !tbaa !14
  %14 = sext i32 %13 to i64
  %15 = mul i64 %14, 8
  %16 = call noalias ptr @uprv_malloc_77(i64 noundef %15) #14
  store ptr %16, ptr %8, align 8, !tbaa !225
  %17 = load ptr, ptr %8, align 8, !tbaa !225
  %18 = icmp ne ptr %17, null
  br i1 %18, label %19, label %52

19:                                               ; preds = %12
  %20 = load i32, ptr %7, align 4, !tbaa !14
  %21 = icmp sgt i32 %20, 0
  br i1 %21, label %22, label %46

22:                                               ; preds = %19
  %23 = load i32, ptr %7, align 4, !tbaa !14
  %24 = getelementptr inbounds nuw %"class.icu_77::MaybeStackArray.0", ptr %9, i32 0, i32 1
  %25 = load i32, ptr %24, align 8, !tbaa !223
  %26 = icmp sgt i32 %23, %25
  br i1 %26, label %27, label %30

27:                                               ; preds = %22
  %28 = getelementptr inbounds nuw %"class.icu_77::MaybeStackArray.0", ptr %9, i32 0, i32 1
  %29 = load i32, ptr %28, align 8, !tbaa !223
  store i32 %29, ptr %7, align 4, !tbaa !14
  br label %30

30:                                               ; preds = %27, %22
  %31 = load i32, ptr %7, align 4, !tbaa !14
  %32 = load i32, ptr %6, align 4, !tbaa !14
  %33 = icmp sgt i32 %31, %32
  br i1 %33, label %34, label %36

34:                                               ; preds = %30
  %35 = load i32, ptr %6, align 4, !tbaa !14
  store i32 %35, ptr %7, align 4, !tbaa !14
  br label %36

36:                                               ; preds = %34, %30
  br label %37

37:                                               ; preds = %36
  %38 = load ptr, ptr %8, align 8, !tbaa !225
  %39 = getelementptr inbounds nuw %"class.icu_77::MaybeStackArray.0", ptr %9, i32 0, i32 0
  %40 = load ptr, ptr %39, align 8, !tbaa !222
  %41 = load i32, ptr %7, align 4, !tbaa !14
  %42 = sext i32 %41 to i64
  %43 = mul i64 %42, 8
  call void @llvm.memcpy.p0.p0.i64(ptr align 8 %38, ptr align 8 %40, i64 %43, i1 false)
  br label %44

44:                                               ; preds = %37
  br label %45

45:                                               ; preds = %44
  br label %46

46:                                               ; preds = %45, %19
  call void @_ZN6icu_7715MaybeStackArrayIPKNS_8numparse4impl18NumberParseMatcherELi10EE12releaseArrayEv(ptr noundef nonnull align 8 dereferenceable(96) %9)
  %47 = load ptr, ptr %8, align 8, !tbaa !225
  %48 = getelementptr inbounds nuw %"class.icu_77::MaybeStackArray.0", ptr %9, i32 0, i32 0
  store ptr %47, ptr %48, align 8, !tbaa !222
  %49 = load i32, ptr %6, align 4, !tbaa !14
  %50 = getelementptr inbounds nuw %"class.icu_77::MaybeStackArray.0", ptr %9, i32 0, i32 1
  store i32 %49, ptr %50, align 8, !tbaa !223
  %51 = getelementptr inbounds nuw %"class.icu_77::MaybeStackArray.0", ptr %9, i32 0, i32 2
  store i8 1, ptr %51, align 4, !tbaa !224
  br label %52

52:                                               ; preds = %46, %12
  %53 = load ptr, ptr %8, align 8, !tbaa !225
  store ptr %53, ptr %4, align 8
  call void @llvm.lifetime.end.p0(i64 8, ptr %8) #13
  br label %55

54:                                               ; preds = %3
  store ptr null, ptr %4, align 8
  br label %55

55:                                               ; preds = %54, %52
  %56 = load ptr, ptr %4, align 8
  ret ptr %56
}

; Function Attrs: mustprogress nounwind uwtable
define linkonce_odr noundef i32 @_ZNK6icu_7715MaybeStackArrayIPKNS_8numparse4impl18NumberParseMatcherELi10EE11getCapacityEv(ptr noundef nonnull align 8 dereferenceable(96) %0) #0 comdat align 2 {
  %2 = alloca ptr, align 8
  store ptr %0, ptr %2, align 8, !tbaa !220
  %3 = load ptr, ptr %2, align 8
  %4 = getelementptr inbounds nuw %"class.icu_77::MaybeStackArray.0", ptr %3, i32 0, i32 1
  %5 = load i32, ptr %4, align 8, !tbaa !223
  ret i32 %5
}

; Function Attrs: mustprogress uwtable
define void @_ZN6icu_778numparse4impl16NumberParserImpl10addMatcherERNS1_18NumberParseMatcherE(ptr noundef nonnull align 8 dereferenceable(5216) %0, ptr noundef nonnull align 8 dereferenceable(8) %1) unnamed_addr #1 align 2 {
  %3 = alloca ptr, align 8
  %4 = alloca ptr, align 8
  store ptr %0, ptr %3, align 8, !tbaa !41
  store ptr %1, ptr %4, align 8, !tbaa !23
  %5 = load ptr, ptr %3, align 8
  %6 = getelementptr inbounds nuw %"class.icu_77::numparse::impl::NumberParserImpl", ptr %5, i32 0, i32 2
  %7 = load i32, ptr %6, align 4, !tbaa !217
  %8 = add nsw i32 %7, 1
  %9 = getelementptr inbounds nuw %"class.icu_77::numparse::impl::NumberParserImpl", ptr %5, i32 0, i32 3
  %10 = call noundef i32 @_ZNK6icu_7715MaybeStackArrayIPKNS_8numparse4impl18NumberParseMatcherELi10EE11getCapacityEv(ptr noundef nonnull align 8 dereferenceable(96) %9)
  %11 = icmp sgt i32 %8, %10
  br i1 %11, label %12, label %20

12:                                               ; preds = %2
  %13 = getelementptr inbounds nuw %"class.icu_77::numparse::impl::NumberParserImpl", ptr %5, i32 0, i32 3
  %14 = getelementptr inbounds nuw %"class.icu_77::numparse::impl::NumberParserImpl", ptr %5, i32 0, i32 2
  %15 = load i32, ptr %14, align 4, !tbaa !217
  %16 = mul nsw i32 %15, 2
  %17 = getelementptr inbounds nuw %"class.icu_77::numparse::impl::NumberParserImpl", ptr %5, i32 0, i32 2
  %18 = load i32, ptr %17, align 4, !tbaa !217
  %19 = call noundef ptr @_ZN6icu_7715MaybeStackArrayIPKNS_8numparse4impl18NumberParseMatcherELi10EE6resizeEii(ptr noundef nonnull align 8 dereferenceable(96) %13, i32 noundef %16, i32 noundef %18)
  br label %20

20:                                               ; preds = %12, %2
  %21 = load ptr, ptr %4, align 8, !tbaa !23
  %22 = getelementptr inbounds nuw %"class.icu_77::numparse::impl::NumberParserImpl", ptr %5, i32 0, i32 3
  %23 = getelementptr inbounds nuw %"class.icu_77::numparse::impl::NumberParserImpl", ptr %5, i32 0, i32 2
  %24 = load i32, ptr %23, align 4, !tbaa !217
  %25 = sext i32 %24 to i64
  %26 = call noundef nonnull align 8 dereferenceable(8) ptr @_ZN6icu_7715MaybeStackArrayIPKNS_8numparse4impl18NumberParseMatcherELi10EEixEl(ptr noundef nonnull align 8 dereferenceable(96) %22, i64 noundef %25)
  store ptr %21, ptr %26, align 8, !tbaa !23
  %27 = getelementptr inbounds nuw %"class.icu_77::numparse::impl::NumberParserImpl", ptr %5, i32 0, i32 2
  %28 = load i32, ptr %27, align 4, !tbaa !217
  %29 = add nsw i32 %28, 1
  store i32 %29, ptr %27, align 4, !tbaa !217
  ret void
}