; Function Attrs: mustprogress uwtable
define void @_ZN6icu_778numparse4impl16NumberParserImpl10addMatcherERNS1_18NumberParseMatcherE(ptr noundef nonnull align 8 captures(none) dereferenceable(5216) %0, ptr noundef nonnull align 8 dereferenceable(8) %1) unnamed_addr #1 align 2 {
  %3 = getelementptr inbounds nuw i8, ptr %0, i64 12
  %4 = load i32, ptr %3, align 4, !tbaa !177
  %5 = getelementptr inbounds nuw i8, ptr %0, i64 16
  %6 = getelementptr inbounds nuw i8, ptr %0, i64 24
  %7 = load i32, ptr %6, align 8, !tbaa !179
  %.not = icmp slt i32 %4, %7
  br i1 %.not, label %_ZN6icu_7715MaybeStackArrayIPKNS_8numparse4impl18NumberParseMatcherELi10EE6resizeEii.exit, label %8

8:                                                ; preds = %2
  %9 = shl nsw i32 %4, 1
  %10 = icmp sgt i32 %4, 0
  br i1 %10, label %11, label %_ZN6icu_7715MaybeStackArrayIPKNS_8numparse4impl18NumberParseMatcherELi10EE6resizeEii.exit

11:                                               ; preds = %8
  %12 = zext nneg i32 %9 to i64
  %13 = shl nuw nsw i64 %12, 3
  %14 = tail call noalias ptr @uprv_malloc_77(i64 noundef %13) #20
  %.not.i = icmp eq ptr %14, null
  br i1 %.not.i, label %_ZN6icu_7715MaybeStackArrayIPKNS_8numparse4impl18NumberParseMatcherELi10EE6resizeEii.exit, label %15

15:                                               ; preds = %11
  %16 = load i32, ptr %6, align 8, !tbaa !179
  %spec.select.i = tail call i32 @llvm.smin.i32(i32 %4, i32 %16)
  %.1.i = tail call i32 @llvm.smin.i32(i32 %spec.select.i, i32 %9)
  %17 = load ptr, ptr %5, align 8, !tbaa !178
  %18 = sext i32 %.1.i to i64
  %19 = shl nsw i64 %18, 3
  tail call void @llvm.memcpy.p0.p0.i64(ptr nonnull align 8 %14, ptr align 8 %17, i64 %19, i1 false)
  %20 = getelementptr inbounds nuw i8, ptr %0, i64 28
  %21 = load i8, ptr %20, align 4, !tbaa !180
  %.not.i.i = icmp eq i8 %21, 0
  br i1 %.not.i.i, label %_ZN6icu_7715MaybeStackArrayIPKNS_8numparse4impl18NumberParseMatcherELi10EE12releaseArrayEv.exit.i, label %22

22:                                               ; preds = %15
  tail call void @uprv_free_77(ptr noundef %17)
  br label %_ZN6icu_7715MaybeStackArrayIPKNS_8numparse4impl18NumberParseMatcherELi10EE12releaseArrayEv.exit.i

_ZN6icu_7715MaybeStackArrayIPKNS_8numparse4impl18NumberParseMatcherELi10EE12releaseArrayEv.exit.i: ; preds = %22, %15
  store ptr %14, ptr %5, align 8, !tbaa !178
  store i32 %9, ptr %6, align 8, !tbaa !179
  store i8 1, ptr %20, align 4, !tbaa !180
  br label %_ZN6icu_7715MaybeStackArrayIPKNS_8numparse4impl18NumberParseMatcherELi10EE6resizeEii.exit

_ZN6icu_7715MaybeStackArrayIPKNS_8numparse4impl18NumberParseMatcherELi10EE6resizeEii.exit: ; preds = %_ZN6icu_7715MaybeStackArrayIPKNS_8numparse4impl18NumberParseMatcherELi10EE12releaseArrayEv.exit.i, %11, %8, %2
  %23 = load i32, ptr %3, align 4, !tbaa !177
  %24 = sext i32 %23 to i64
  %25 = load ptr, ptr %5, align 8, !tbaa !178
  %26 = getelementptr inbounds ptr, ptr %25, i64 %24
  store ptr %1, ptr %26, align 8, !tbaa !185
  %27 = add nsw i32 %23, 1
  store i32 %27, ptr %3, align 4, !tbaa !177
  ret void
}